; Listing generated by Microsoft (R) Optimizing Compiler Version 19.23.28106.4 

	TITLE	C:\Users\t_bal\source\repos\PonyMenu\PonyMenu\Debug\moc\moc_mainwindow.cpp
	.686P
	.XMM
	include listing.inc
	.model	flat

INCLUDELIB MSVCRTD
INCLUDELIB OLDNAMES

CONST	SEGMENT
$SG122896 DB	'C:\qt\5.11.3\msvc2015\include\QtCore\qmetatype.h', 00H
	ORG $+7
$SG122897 DB	'qRegisterNormalizedMetaType was called with a not normal'
	DB	'ized type name, please call qRegisterMetaType instead.', 00H
	ORG $+1
$SG122898 DB	'qRegisterNormalizedMetaType', 00H
$SG123235 DB	'C:\qt\5.11.3\msvc2015\include\QtCore\qmetatype.h', 00H
	ORG $+3
$SG123236 DB	'qRegisterNormalizedMetaType was called with a not normal'
	DB	'ized type name, please call qRegisterMetaType instead.', 00H
	ORG $+1
$SG123237 DB	'qRegisterNormalizedMetaType', 00H
$SG123574 DB	'C:\qt\5.11.3\msvc2015\include\QtCore\qmetatype.h', 00H
	ORG $+3
$SG123575 DB	'qRegisterNormalizedMetaType was called with a not normal'
	DB	'ized type name, please call qRegisterMetaType instead.', 00H
	ORG $+1
$SG123576 DB	'qRegisterNormalizedMetaType', 00H
$SG123923 DB	'invalid argument', 00H
	ORG $+3
$SG123924 DB	'%s', 00H
	ORG $+1
?qt_meta_stringdata_MainWindow@@3Uqt_meta_stringdata_MainWindow_t@@B DD 0ffffffffH ; qt_meta_stringdata_MainWindow
	DD	0aH
	DD	00H
	DD	040H
	DD	0ffffffffH
	DD	016H
	DD	00H
	DD	03bH
	DD	0ffffffffH
	DD	00H
	DD	00H
	DD	042H
	DD	0ffffffffH
	DD	015H
	DD	00H
	DD	033H
	DB	04dH
	DB	061H
	DB	069H
	DB	06eH
	DB	057H
	DB	069H
	DB	06eH
	DB	064H
	DB	06fH
	DB	077H
	DB	00H
	DB	06fH
	DB	06eH
	DB	05fH
	DB	073H
	DB	074H
	DB	061H
	DB	072H
	DB	074H
	DB	042H
	DB	075H
	DB	074H
	DB	074H
	DB	06fH
	DB	06eH
	DB	05fH
	DB	063H
	DB	06cH
	DB	069H
	DB	063H
	DB	06bH
	DB	065H
	DB	064H
	DB	00H
	DB	00H
	DB	06fH
	DB	06eH
	DB	05fH
	DB	06dH
	DB	061H
	DB	06eH
	DB	061H
	DB	042H
	DB	075H
	DB	074H
	DB	074H
	DB	06fH
	DB	06eH
	DB	05fH
	DB	070H
	DB	072H
	DB	065H
	DB	073H
	DB	073H
	DB	065H
	DB	064H
	DB	00H
	ORG $+3
$SG123925 DB	'C:\Program Files (x86)\Microsoft Visual Studio\2019\Comm'
	DB	'unity\VC\Tools\MSVC\14.23.28105\include\xmemory', 00H
$SG123926 DB	'C', 00H, ':', 00H, '\', 00H, 'P', 00H, 'r', 00H, 'o', 00H
	DB	'g', 00H, 'r', 00H, 'a', 00H, 'm', 00H, ' ', 00H, 'F', 00H, 'i'
	DB	00H, 'l', 00H, 'e', 00H, 's', 00H, ' ', 00H, '(', 00H, 'x', 00H
	DB	'8', 00H, '6', 00H, ')', 00H, '\', 00H, 'M', 00H, 'i', 00H, 'c'
	DB	00H, 'r', 00H, 'o', 00H, 's', 00H, 'o', 00H, 'f', 00H, 't', 00H
	DB	' ', 00H, 'V', 00H, 'i', 00H, 's', 00H, 'u', 00H, 'a', 00H, 'l'
	DB	00H, ' ', 00H, 'S', 00H, 't', 00H, 'u', 00H, 'd', 00H, 'i', 00H
	DB	'o', 00H, '\', 00H, '2', 00H, '0', 00H, '1', 00H, '9', 00H, '\'
	DB	00H, 'C', 00H, 'o', 00H, 'm', 00H, 'm', 00H, 'u', 00H, 'n', 00H
	DB	'i', 00H, 't', 00H, 'y', 00H, '\', 00H, 'V', 00H, 'C', 00H, '\'
	DB	00H, 'T', 00H, 'o', 00H, 'o', 00H, 'l', 00H, 's', 00H, '\', 00H
	DB	'M', 00H, 'S', 00H, 'V', 00H, 'C', 00H, '\', 00H, '1', 00H, '4'
	DB	00H, '.', 00H, '2', 00H, '3', 00H, '.', 00H, '2', 00H, '8', 00H
	DB	'1', 00H, '0', 00H, '5', 00H, '\', 00H, 'i', 00H, 'n', 00H, 'c'
	DB	00H, 'l', 00H, 'u', 00H, 'd', 00H, 'e', 00H, '\', 00H, 'x', 00H
	DB	'm', 00H, 'e', 00H, 'm', 00H, 'o', 00H, 'r', 00H, 'y', 00H, 00H
	DB	00H
$SG123927 DB	's', 00H, 't', 00H, 'd', 00H, ':', 00H, ':', 00H, '_', 00H
	DB	'A', 00H, 'l', 00H, 'l', 00H, 'o', 00H, 'c', 00H, 'a', 00H, 't'
	DB	00H, 'e', 00H, '_', 00H, 'm', 00H, 'a', 00H, 'n', 00H, 'u', 00H
	DB	'a', 00H, 'l', 00H, 'l', 00H, 'y', 00H, '_', 00H, 'v', 00H, 'e'
	DB	00H, 'c', 00H, 't', 00H, 'o', 00H, 'r', 00H, '_', 00H, 'a', 00H
	DB	'l', 00H, 'i', 00H, 'g', 00H, 'n', 00H, 'e', 00H, 'd', 00H, 00H
	DB	00H
	ORG $+2
$SG123928 DB	'"', 00H, 'i', 00H, 'n', 00H, 'v', 00H, 'a', 00H, 'l', 00H
	DB	'i', 00H, 'd', 00H, ' ', 00H, 'a', 00H, 'r', 00H, 'g', 00H, 'u'
	DB	00H, 'm', 00H, 'e', 00H, 'n', 00H, 't', 00H, '"', 00H, 00H, 00H
	ORG $+2
$SG123970 DB	'C:\Program Files (x86)\Microsoft Visual Studio\2019\Comm'
	DB	'unity\VC\Tools\MSVC\14.23.28105\include\xlocale', 00H
?qt_meta_data_MainWindow@@3QBIB DD 07H			; qt_meta_data_MainWindow
	DD	00H
	DD	00H
	DD	00H
	DD	02H
	DD	0eH
	DD	00H
	DD	00H
	DD	00H
	DD	00H
	DD	00H
	DD	00H
	DD	00H
	DD	00H
	DD	01H
	DD	00H
	DD	018H
	DD	02H
	DD	08H
	DD	03H
	DD	00H
	DD	019H
	DD	02H
	DD	08H
	DD	02bH
	DD	02bH
	DD	00H
CONST	ENDS
PUBLIC	?__empty_global_delete@@YAXPAX@Z		; __empty_global_delete
PUBLIC	?__empty_global_delete@@YAXPAXI@Z		; __empty_global_delete
PUBLIC	??C?$QScopedPointer@VQObjectData@@U?$QScopedPointerDeleter@VQObjectData@@@@@@QBEPAVQObjectData@@XZ ; QScopedPointer<QObjectData,QScopedPointerDeleter<QObjectData> >::operator->
PUBLIC	?metaObject@MainWindow@@UBEPBUQMetaObject@@XZ	; MainWindow::metaObject
PUBLIC	?qt_metacast@MainWindow@@UAEPAXPBD@Z		; MainWindow::qt_metacast
PUBLIC	?qt_metacall@MainWindow@@UAEHW4Call@QMetaObject@@HPAPAX@Z ; MainWindow::qt_metacall
PUBLIC	?qt_static_metacall@MainWindow@@CAXPAVQObject@@W4Call@QMetaObject@@HPAPAX@Z ; MainWindow::qt_static_metacall
PUBLIC	?staticMetaObject@MainWindow@@2UQMetaObject@@B	; MainWindow::staticMetaObject
EXTRN	_strcmp:PROC
EXTRN	__imp_?dynamicMetaObject@QObjectData@@QBEPAUQMetaObject@@XZ:PROC
EXTRN	__imp_?qt_metacast@QMainWindow@@UAEPAXPBD@Z:PROC
EXTRN	__imp_?qt_metacall@QMainWindow@@UAEHW4Call@QMetaObject@@HPAPAX@Z:PROC
EXTRN	?on_startButton_clicked@MainWindow@@AAEXXZ:PROC	; MainWindow::on_startButton_clicked
EXTRN	?on_manaButton_pressed@MainWindow@@AAEXXZ:PROC	; MainWindow::on_manaButton_pressed
EXTRN	__imp_?staticMetaObject@QMainWindow@@2UQMetaObject@@B:BYTE
_BSS	SEGMENT
?staticMetaObject@MainWindow@@2UQMetaObject@@B DB 018H DUP (?) ; MainWindow::staticMetaObject
_BSS	ENDS
CRT$XCU	SEGMENT
??staticMetaObject$initializer$@MainWindow@@2P6AXXZA@@3P6AXXZA DD FLAT:??__E?staticMetaObject@MainWindow@@2UQMetaObject@@B@@YAXXZ ; ??staticMetaObject$initializer$@MainWindow@@2P6AXXZA@@3P6AXXZA
CRT$XCU	ENDS
; Function compile flags: /Odtp
;	COMDAT ??__E?staticMetaObject@MainWindow@@2UQMetaObject@@B@@YAXXZ
text$di	SEGMENT
??__E?staticMetaObject@MainWindow@@2UQMetaObject@@B@@YAXXZ PROC ; `dynamic initializer for 'MainWindow::staticMetaObject'', COMDAT
; File C:\Users\t_bal\source\repos\PonyMenu\PonyMenu\Debug\moc\moc_mainwindow.cpp
; Line 86
	push	ebp
	mov	ebp, esp
; Line 84
	mov	eax, DWORD PTR __imp_?staticMetaObject@QMainWindow@@2UQMetaObject@@B
	mov	DWORD PTR ?staticMetaObject@MainWindow@@2UQMetaObject@@B, eax
	mov	DWORD PTR ?staticMetaObject@MainWindow@@2UQMetaObject@@B+4, OFFSET ?qt_meta_stringdata_MainWindow@@3Uqt_meta_stringdata_MainWindow_t@@B
; Line 85
	mov	DWORD PTR ?staticMetaObject@MainWindow@@2UQMetaObject@@B+8, OFFSET ?qt_meta_data_MainWindow@@3QBIB
	mov	DWORD PTR ?staticMetaObject@MainWindow@@2UQMetaObject@@B+12, OFFSET ?qt_static_metacall@MainWindow@@CAXPAVQObject@@W4Call@QMetaObject@@HPAPAX@Z ; MainWindow::qt_static_metacall
	mov	DWORD PTR ?staticMetaObject@MainWindow@@2UQMetaObject@@B+16, 0
	mov	DWORD PTR ?staticMetaObject@MainWindow@@2UQMetaObject@@B+20, 0
	pop	ebp
	ret	0
??__E?staticMetaObject@MainWindow@@2UQMetaObject@@B@@YAXXZ ENDP ; `dynamic initializer for 'MainWindow::staticMetaObject''
text$di	ENDS
; Function compile flags: /Odtp
_TEXT	SEGMENT
__t$1 = -8						; size = 4
tv69 = -4						; size = 4
__o$ = 8						; size = 4
__c$ = 12						; size = 4
__id$ = 16						; size = 4
__a$ = 20						; size = 4
?qt_static_metacall@MainWindow@@CAXPAVQObject@@W4Call@QMetaObject@@HPAPAX@Z PROC ; MainWindow::qt_static_metacall
; File C:\Users\t_bal\source\repos\PonyMenu\PonyMenu\Debug\moc\moc_mainwindow.cpp
; Line 70
	push	ebp
	mov	ebp, esp
	sub	esp, 8
; Line 71
	cmp	DWORD PTR __c$[ebp], 0
	jne	SHORT $LN1@qt_static_
; Line 72
	mov	eax, DWORD PTR __o$[ebp]
	mov	DWORD PTR __t$1[ebp], eax
; Line 74
	mov	ecx, DWORD PTR __id$[ebp]
	mov	DWORD PTR tv69[ebp], ecx
	cmp	DWORD PTR tv69[ebp], 0
	je	SHORT $LN5@qt_static_
	cmp	DWORD PTR tv69[ebp], 1
	je	SHORT $LN6@qt_static_
	jmp	SHORT $LN1@qt_static_
$LN5@qt_static_:
; Line 75
	mov	ecx, DWORD PTR __t$1[ebp]
	call	?on_startButton_clicked@MainWindow@@AAEXXZ ; MainWindow::on_startButton_clicked
	jmp	SHORT $LN1@qt_static_
$LN6@qt_static_:
; Line 76
	mov	ecx, DWORD PTR __t$1[ebp]
	call	?on_manaButton_pressed@MainWindow@@AAEXXZ ; MainWindow::on_manaButton_pressed
$LN1@qt_static_:
; Line 81
	mov	esp, ebp
	pop	ebp
	ret	0
?qt_static_metacall@MainWindow@@CAXPAVQObject@@W4Call@QMetaObject@@HPAPAX@Z ENDP ; MainWindow::qt_static_metacall
_TEXT	ENDS
; Function compile flags: /Odtp
_TEXT	SEGMENT
_this$ = -4						; size = 4
__c$ = 8						; size = 4
__id$ = 12						; size = 4
__a$ = 16						; size = 4
?qt_metacall@MainWindow@@UAEHW4Call@QMetaObject@@HPAPAX@Z PROC ; MainWindow::qt_metacall
; _this$ = ecx
; File C:\Users\t_bal\source\repos\PonyMenu\PonyMenu\Debug\moc\moc_mainwindow.cpp
; Line 103
	push	ebp
	mov	ebp, esp
	push	ecx
	mov	DWORD PTR _this$[ebp], ecx
; Line 104
	mov	eax, DWORD PTR __a$[ebp]
	push	eax
	mov	ecx, DWORD PTR __id$[ebp]
	push	ecx
	mov	edx, DWORD PTR __c$[ebp]
	push	edx
	mov	ecx, DWORD PTR _this$[ebp]
	call	DWORD PTR __imp_?qt_metacall@QMainWindow@@UAEHW4Call@QMetaObject@@HPAPAX@Z
	mov	DWORD PTR __id$[ebp], eax
; Line 105
	cmp	DWORD PTR __id$[ebp], 0
	jge	SHORT $LN2@qt_metacal
; Line 106
	mov	eax, DWORD PTR __id$[ebp]
	jmp	SHORT $LN1@qt_metacal
$LN2@qt_metacal:
; Line 107
	cmp	DWORD PTR __c$[ebp], 0
	jne	SHORT $LN3@qt_metacal
; Line 108
	cmp	DWORD PTR __id$[ebp], 2
	jge	SHORT $LN5@qt_metacal
; Line 109
	mov	eax, DWORD PTR __a$[ebp]
	push	eax
	mov	ecx, DWORD PTR __id$[ebp]
	push	ecx
	mov	edx, DWORD PTR __c$[ebp]
	push	edx
	mov	eax, DWORD PTR _this$[ebp]
	push	eax
	call	?qt_static_metacall@MainWindow@@CAXPAVQObject@@W4Call@QMetaObject@@HPAPAX@Z ; MainWindow::qt_static_metacall
	add	esp, 16					; 00000010H
$LN5@qt_metacal:
; Line 110
	mov	ecx, DWORD PTR __id$[ebp]
	sub	ecx, 2
	mov	DWORD PTR __id$[ebp], ecx
	jmp	SHORT $LN4@qt_metacal
$LN3@qt_metacal:
; Line 111
	cmp	DWORD PTR __c$[ebp], 12			; 0000000cH
	jne	SHORT $LN4@qt_metacal
; Line 112
	cmp	DWORD PTR __id$[ebp], 2
	jge	SHORT $LN7@qt_metacal
; Line 113
	mov	edx, 4
	imul	eax, edx, 0
	mov	ecx, DWORD PTR __a$[ebp]
	mov	edx, DWORD PTR [ecx+eax]
	mov	DWORD PTR [edx], -1
$LN7@qt_metacal:
; Line 114
	mov	eax, DWORD PTR __id$[ebp]
	sub	eax, 2
	mov	DWORD PTR __id$[ebp], eax
$LN4@qt_metacal:
; Line 116
	mov	eax, DWORD PTR __id$[ebp]
$LN1@qt_metacal:
; Line 117
	mov	esp, ebp
	pop	ebp
	ret	12					; 0000000cH
?qt_metacall@MainWindow@@UAEHW4Call@QMetaObject@@HPAPAX@Z ENDP ; MainWindow::qt_metacall
_TEXT	ENDS
; Function compile flags: /Odtp
_TEXT	SEGMENT
_this$ = -4						; size = 4
__clname$ = 8						; size = 4
?qt_metacast@MainWindow@@UAEPAXPBD@Z PROC		; MainWindow::qt_metacast
; _this$ = ecx
; File C:\Users\t_bal\source\repos\PonyMenu\PonyMenu\Debug\moc\moc_mainwindow.cpp
; Line 95
	push	ebp
	mov	ebp, esp
	push	ecx
	mov	DWORD PTR _this$[ebp], ecx
; Line 96
	cmp	DWORD PTR __clname$[ebp], 0
	jne	SHORT $LN2@qt_metacas
	xor	eax, eax
	jmp	SHORT $LN1@qt_metacas
$LN2@qt_metacas:
; Line 97
	push	OFFSET ?qt_meta_stringdata_MainWindow@@3Uqt_meta_stringdata_MainWindow_t@@B+64
	mov	eax, DWORD PTR __clname$[ebp]
	push	eax
	call	_strcmp
	add	esp, 8
	test	eax, eax
	jne	SHORT $LN3@qt_metacas
; Line 98
	mov	eax, DWORD PTR _this$[ebp]
	jmp	SHORT $LN1@qt_metacas
$LN3@qt_metacas:
; Line 99
	mov	ecx, DWORD PTR __clname$[ebp]
	push	ecx
	mov	ecx, DWORD PTR _this$[ebp]
	call	DWORD PTR __imp_?qt_metacast@QMainWindow@@UAEPAXPBD@Z
$LN1@qt_metacas:
; Line 100
	mov	esp, ebp
	pop	ebp
	ret	4
?qt_metacast@MainWindow@@UAEPAXPBD@Z ENDP		; MainWindow::qt_metacast
_TEXT	ENDS
; Function compile flags: /Odtp
_TEXT	SEGMENT
tv82 = -8						; size = 4
_this$ = -4						; size = 4
?metaObject@MainWindow@@UBEPBUQMetaObject@@XZ PROC	; MainWindow::metaObject
; _this$ = ecx
; File C:\Users\t_bal\source\repos\PonyMenu\PonyMenu\Debug\moc\moc_mainwindow.cpp
; Line 90
	push	ebp
	mov	ebp, esp
	sub	esp, 8
	mov	DWORD PTR _this$[ebp], ecx
; Line 91
	mov	ecx, DWORD PTR _this$[ebp]
	add	ecx, 4
	call	??C?$QScopedPointer@VQObjectData@@U?$QScopedPointerDeleter@VQObjectData@@@@@@QBEPAVQObjectData@@XZ ; QScopedPointer<QObjectData,QScopedPointerDeleter<QObjectData> >::operator->
	cmp	DWORD PTR [eax+24], 0
	je	SHORT $LN3@metaObject
	mov	ecx, DWORD PTR _this$[ebp]
	add	ecx, 4
	call	??C?$QScopedPointer@VQObjectData@@U?$QScopedPointerDeleter@VQObjectData@@@@@@QBEPAVQObjectData@@XZ ; QScopedPointer<QObjectData,QScopedPointerDeleter<QObjectData> >::operator->
	mov	ecx, eax
	call	DWORD PTR __imp_?dynamicMetaObject@QObjectData@@QBEPAUQMetaObject@@XZ
	mov	DWORD PTR tv82[ebp], eax
	jmp	SHORT $LN4@metaObject
$LN3@metaObject:
	mov	DWORD PTR tv82[ebp], OFFSET ?staticMetaObject@MainWindow@@2UQMetaObject@@B ; MainWindow::staticMetaObject
$LN4@metaObject:
	mov	eax, DWORD PTR tv82[ebp]
; Line 92
	mov	esp, ebp
	pop	ebp
	ret	0
?metaObject@MainWindow@@UBEPBUQMetaObject@@XZ ENDP	; MainWindow::metaObject
_TEXT	ENDS
; Function compile flags: /Odtp
;	COMDAT ??C?$QScopedPointer@VQObjectData@@U?$QScopedPointerDeleter@VQObjectData@@@@@@QBEPAVQObjectData@@XZ
_TEXT	SEGMENT
_this$ = -4						; size = 4
??C?$QScopedPointer@VQObjectData@@U?$QScopedPointerDeleter@VQObjectData@@@@@@QBEPAVQObjectData@@XZ PROC ; QScopedPointer<QObjectData,QScopedPointerDeleter<QObjectData> >::operator->, COMDAT
; _this$ = ecx
; File C:\qt\5.11.3\msvc2015\include\QtCore\qscopedpointer.h
; Line 117
	push	ebp
	mov	ebp, esp
	push	ecx
	mov	DWORD PTR _this$[ebp], ecx
; Line 118
	mov	eax, DWORD PTR _this$[ebp]
	mov	eax, DWORD PTR [eax]
; Line 119
	mov	esp, ebp
	pop	ebp
	ret	0
??C?$QScopedPointer@VQObjectData@@U?$QScopedPointerDeleter@VQObjectData@@@@@@QBEPAVQObjectData@@XZ ENDP ; QScopedPointer<QObjectData,QScopedPointerDeleter<QObjectData> >::operator->
_TEXT	ENDS
; Function compile flags: /Odtp
;	COMDAT ?__empty_global_delete@@YAXPAXI@Z
_TEXT	SEGMENT
___formal$ = 8						; size = 4
___formal$ = 12						; size = 4
?__empty_global_delete@@YAXPAXI@Z PROC			; __empty_global_delete, COMDAT
; File C:\Users\t_bal\source\repos\PonyMenu\PonyMenu\Debug\moc\moc_mainwindow.cpp
; Line 120
	push	ebp
	mov	ebp, esp
	pop	ebp
	ret	0
?__empty_global_delete@@YAXPAXI@Z ENDP			; __empty_global_delete
_TEXT	ENDS
; Function compile flags: /Odtp
;	COMDAT ?__empty_global_delete@@YAXPAX@Z
_TEXT	SEGMENT
___formal$ = 8						; size = 4
?__empty_global_delete@@YAXPAX@Z PROC			; __empty_global_delete, COMDAT
; File C:\Users\t_bal\source\repos\PonyMenu\PonyMenu\Debug\moc\moc_mainwindow.cpp
; Line 120
	push	ebp
	mov	ebp, esp
	pop	ebp
	ret	0
?__empty_global_delete@@YAXPAX@Z ENDP			; __empty_global_delete
_TEXT	ENDS
END
